target datalayout = "e-m:e-p270:32:32-p271:32:32-p272:64:64-i64:64-i128:128-f80:128-n8:16:32:64-S128"
target triple = "x86_64-pc-linux-gnu"

%struct.quic_conn_id_st = type { i8, [20 x i8] }

@.str.6 = private unnamed_addr constant [7 x i8] c"SHA256\00", align 1
@quic_v1_initial_salt = internal constant [20 x i8] c"8v,\F7\F5Y4\B3M\17\9A\E6\A4\C8\0C\AD\CC\BB\7F\0A", align 16
@quic_client_in_label = internal constant [9 x i8] c"client in", align 1
@quic_server_in_label = internal constant [9 x i8] c"server in", align 1

; Function Attrs: nounwind uwtable
define i32 @ossl_quic_provide_initial_secret(ptr noundef %0, ptr noundef %1, ptr noundef %2, i32 noundef %3, ptr noundef %4, ptr noundef %5) #0 {
  %7 = alloca i32, align 4
  %8 = alloca ptr, align 8
  %9 = alloca ptr, align 8
  %10 = alloca ptr, align 8
  %11 = alloca i32, align 4
  %12 = alloca ptr, align 8
  %13 = alloca ptr, align 8
  %14 = alloca [32 x i8], align 16
  %15 = alloca [32 x i8], align 16
  %16 = alloca [32 x i8], align 16
  %17 = alloca ptr, align 8
  %18 = alloca ptr, align 8
  %19 = alloca ptr, align 8
  %20 = alloca i32, align 4
  store ptr %0, ptr %8, align 8, !tbaa !3
  store ptr %1, ptr %9, align 8, !tbaa !8
  store ptr %2, ptr %10, align 8, !tbaa !24
  store i32 %3, ptr %11, align 4, !tbaa !14
  store ptr %4, ptr %12, align 8, !tbaa !26
  store ptr %5, ptr %13, align 8, !tbaa !28
  call void @llvm.lifetime.start.p0(i64 32, ptr %14) #4
  call void @llvm.lifetime.start.p0(i64 32, ptr %15) #4
  call void @llvm.lifetime.start.p0(i64 32, ptr %16) #4
  call void @llvm.lifetime.start.p0(i64 8, ptr %17) #4
  call void @llvm.lifetime.start.p0(i64 8, ptr %18) #4
  call void @llvm.lifetime.start.p0(i64 8, ptr %19) #4
  %21 = load ptr, ptr %12, align 8, !tbaa !26
  %22 = icmp eq ptr %21, null
  br i1 %22, label %23, label %27

23:                                               ; preds = %6
  %24 = load ptr, ptr %13, align 8, !tbaa !28
  %25 = icmp eq ptr %24, null
  br i1 %25, label %26, label %27

26:                                               ; preds = %23
  store i32 1, ptr %7, align 4
  store i32 1, ptr %20, align 4
  br label %137

27:                                               ; preds = %23, %6
  %28 = load ptr, ptr %8, align 8, !tbaa !3
  %29 = load ptr, ptr %9, align 8, !tbaa !8
  %30 = call ptr @EVP_MD_fetch(ptr noundef %28, ptr noundef @.str.6, ptr noundef %29)
  store ptr %30, ptr %19, align 8, !tbaa !10
  %31 = icmp eq ptr %30, null
  br i1 %31, label %32, label %33

32:                                               ; preds = %27
  store i32 0, ptr %7, align 4
  store i32 1, ptr %20, align 4
  br label %137

33:                                               ; preds = %27
  %34 = load i32, ptr %11, align 4, !tbaa !14
  %35 = icmp ne i32 %34, 0
  br i1 %35, label %36, label %39

36:                                               ; preds = %33
  %37 = getelementptr inbounds [32 x i8], ptr %15, i64 0, i64 0
  store ptr %37, ptr %17, align 8, !tbaa !8
  %38 = getelementptr inbounds [32 x i8], ptr %16, i64 0, i64 0
  store ptr %38, ptr %18, align 8, !tbaa !8
  br label %42

39:                                               ; preds = %33
  %40 = getelementptr inbounds [32 x i8], ptr %16, i64 0, i64 0
  store ptr %40, ptr %17, align 8, !tbaa !8
  %41 = getelementptr inbounds [32 x i8], ptr %15, i64 0, i64 0
  store ptr %41, ptr %18, align 8, !tbaa !8
  br label %42

42:                                               ; preds = %39, %36
  %43 = load ptr, ptr %8, align 8, !tbaa !3
  %44 = load ptr, ptr %9, align 8, !tbaa !8
  %45 = load ptr, ptr %19, align 8, !tbaa !10
  %46 = load ptr, ptr %10, align 8, !tbaa !24
  %47 = getelementptr inbounds nuw %struct.quic_conn_id_st, ptr %46, i32 0, i32 1
  %48 = getelementptr inbounds [20 x i8], ptr %47, i64 0, i64 0
  %49 = load ptr, ptr %10, align 8, !tbaa !24
  %50 = getelementptr inbounds nuw %struct.quic_conn_id_st, ptr %49, i32 0, i32 0
  %51 = load i8, ptr %50, align 1, !tbaa !30
  %52 = zext i8 %51 to i64
  %53 = getelementptr inbounds [32 x i8], ptr %14, i64 0, i64 0
  %54 = call i32 @ossl_quic_hkdf_extract(ptr noundef %43, ptr noundef %44, ptr noundef %45, ptr noundef @quic_v1_initial_salt, i64 noundef 20, ptr noundef %48, i64 noundef %52, ptr noundef %53, i64 noundef 32)
  %55 = icmp ne i32 %54, 0
  br i1 %55, label %57, label %56

56:                                               ; preds = %42
  br label %135

57:                                               ; preds = %42
  %58 = load ptr, ptr %13, align 8, !tbaa !28
  %59 = icmp ne ptr %58, null
  br i1 %59, label %60, label %64

60:                                               ; preds = %57
  %61 = load ptr, ptr %18, align 8, !tbaa !8
  %62 = getelementptr inbounds [32 x i8], ptr %15, i64 0, i64 0
  %63 = icmp eq ptr %61, %62
  br i1 %63, label %71, label %64

64:                                               ; preds = %60, %57
  %65 = load ptr, ptr %12, align 8, !tbaa !26
  %66 = icmp ne ptr %65, null
  br i1 %66, label %67, label %80

67:                                               ; preds = %64
  %68 = load ptr, ptr %17, align 8, !tbaa !8
  %69 = getelementptr inbounds [32 x i8], ptr %15, i64 0, i64 0
  %70 = icmp eq ptr %68, %69
  br i1 %70, label %71, label %80

71:                                               ; preds = %67, %60
  %72 = load ptr, ptr %8, align 8, !tbaa !3
  %73 = load ptr, ptr %9, align 8, !tbaa !8
  %74 = load ptr, ptr %19, align 8, !tbaa !10
  %75 = getelementptr inbounds [32 x i8], ptr %14, i64 0, i64 0
  %76 = getelementptr inbounds [32 x i8], ptr %15, i64 0, i64 0
  %77 = call i32 @tls13_hkdf_expand_ex(ptr noundef %72, ptr noundef %73, ptr noundef %74, ptr noundef %75, ptr noundef @quic_client_in_label, i64 noundef 9, ptr noundef null, i64 noundef 0, ptr noundef %76, i64 noundef 32, i32 noundef 1)
  %78 = icmp ne i32 %77, 0
  br i1 %78, label %80, label %79

79:                                               ; preds = %71
  br label %135

80:                                               ; preds = %71, %67, %64
  %81 = load ptr, ptr %13, align 8, !tbaa !28
  %82 = icmp ne ptr %81, null
  br i1 %82, label %83, label %87

83:                                               ; preds = %80
  %84 = load ptr, ptr %18, align 8, !tbaa !8
  %85 = getelementptr inbounds [32 x i8], ptr %16, i64 0, i64 0
  %86 = icmp eq ptr %84, %85
  br i1 %86, label %94, label %87

87:                                               ; preds = %83, %80
  %88 = load ptr, ptr %12, align 8, !tbaa !26
  %89 = icmp ne ptr %88, null
  br i1 %89, label %90, label %103

90:                                               ; preds = %87
  %91 = load ptr, ptr %17, align 8, !tbaa !8
  %92 = getelementptr inbounds [32 x i8], ptr %16, i64 0, i64 0
  %93 = icmp eq ptr %91, %92
  br i1 %93, label %94, label %103

94:                                               ; preds = %90, %83
  %95 = load ptr, ptr %8, align 8, !tbaa !3
  %96 = load ptr, ptr %9, align 8, !tbaa !8
  %97 = load ptr, ptr %19, align 8, !tbaa !10
  %98 = getelementptr inbounds [32 x i8], ptr %14, i64 0, i64 0
  %99 = getelementptr inbounds [32 x i8], ptr %16, i64 0, i64 0
  %100 = call i32 @tls13_hkdf_expand_ex(ptr noundef %95, ptr noundef %96, ptr noundef %97, ptr noundef %98, ptr noundef @quic_server_in_label, i64 noundef 9, ptr noundef null, i64 noundef 0, ptr noundef %99, i64 noundef 32, i32 noundef 1)
  %101 = icmp ne i32 %100, 0
  br i1 %101, label %103, label %102

102:                                              ; preds = %94
  br label %135

103:                                              ; preds = %94, %90, %87
  %104 = load ptr, ptr %12, align 8, !tbaa !26
  %105 = icmp ne ptr %104, null
  br i1 %105, label %106, label %113

106:                                              ; preds = %103
  %107 = load ptr, ptr %12, align 8, !tbaa !26
  %108 = load ptr, ptr %19, align 8, !tbaa !10
  %109 = load ptr, ptr %17, align 8, !tbaa !8
  %110 = call i32 @ossl_qrx_provide_secret(ptr noundef %107, i32 noundef 0, i32 noundef 1, ptr noundef %108, ptr noundef %109, i64 noundef 32)
  %111 = icmp ne i32 %110, 0
  br i1 %111, label %113, label %112

112:                                              ; preds = %106
  br label %135

113:                                              ; preds = %106, %103
  %114 = load ptr, ptr %12, align 8, !tbaa !26
  %115 = icmp ne ptr %114, null
  br i1 %115, label %116, label %124

116:                                              ; preds = %113
  %117 = load ptr, ptr %13, align 8, !tbaa !28
  %118 = icmp ne ptr %117, null
  br i1 %118, label %119, label %124

119:                                              ; preds = %116
  %120 = load ptr, ptr %19, align 8, !tbaa !10
  %121 = call i32 @EVP_MD_up_ref(ptr noundef %120)
  %122 = icmp ne i32 %121, 0
  br i1 %122, label %124, label %123

123:                                              ; preds = %119
  store ptr null, ptr %19, align 8, !tbaa !10
  br label %135

124:                                              ; preds = %119, %116, %113
  %125 = load ptr, ptr %13, align 8, !tbaa !28
  %126 = icmp ne ptr %125, null
  br i1 %126, label %127, label %134

127:                                              ; preds = %124
  %128 = load ptr, ptr %13, align 8, !tbaa !28
  %129 = load ptr, ptr %19, align 8, !tbaa !10
  %130 = load ptr, ptr %18, align 8, !tbaa !8
  %131 = call i32 @ossl_qtx_provide_secret(ptr noundef %128, i32 noundef 0, i32 noundef 1, ptr noundef %129, ptr noundef %130, i64 noundef 32)
  %132 = icmp ne i32 %131, 0
  br i1 %132, label %134, label %133

133:                                              ; preds = %127
  br label %135

134:                                              ; preds = %127, %124
  store i32 1, ptr %7, align 4
  store i32 1, ptr %20, align 4
  br label %137

135:                                              ; preds = %133, %123, %112, %102, %79, %56
  %136 = load ptr, ptr %19, align 8, !tbaa !10
  call void @EVP_MD_free(ptr noundef %136)
  store i32 0, ptr %7, align 4
  store i32 1, ptr %20, align 4
  br label %137

137:                                              ; preds = %135, %134, %32, %26
  call void @llvm.lifetime.end.p0(i64 8, ptr %19) #4
  call void @llvm.lifetime.end.p0(i64 8, ptr %18) #4
  call void @llvm.lifetime.end.p0(i64 8, ptr %17) #4
  call void @llvm.lifetime.end.p0(i64 32, ptr %16) #4
  call void @llvm.lifetime.end.p0(i64 32, ptr %15) #4
  call void @llvm.lifetime.end.p0(i64 32, ptr %14) #4
  %138 = load i32, ptr %7, align 4
  ret i32 %138
}