; Function Attrs: nounwind uwtable
define range(i32 0, 2) i32 @ossl_quic_provide_initial_secret(ptr noundef %0, ptr noundef %1, ptr noundef %2, i32 noundef %3, ptr noundef %4, ptr noundef %5) local_unnamed_addr #0 {
  %7 = alloca [32 x i8], align 16
  %8 = alloca [32 x i8], align 16
  %9 = alloca [32 x i8], align 16
  call void @llvm.lifetime.start.p0(i64 32, ptr nonnull %7) #5
  call void @llvm.lifetime.start.p0(i64 32, ptr nonnull %8) #5
  call void @llvm.lifetime.start.p0(i64 32, ptr nonnull %9) #5
  %10 = icmp eq ptr %4, null
  %11 = icmp eq ptr %5, null
  %or.cond = and i1 %10, %11
  br i1 %or.cond, label %.critedge, label %12

12:                                               ; preds = %6
  %13 = tail call ptr @EVP_MD_fetch(ptr noundef %0, ptr noundef nonnull @.str.6, ptr noundef %1) #5
  %14 = icmp eq ptr %13, null
  br i1 %14, label %.critedge, label %15

15:                                               ; preds = %12
  %.not = icmp eq i32 %3, 0
  %. = select i1 %.not, ptr %9, ptr %8
  %.63 = select i1 %.not, ptr %8, ptr %9
  %16 = getelementptr inbounds nuw i8, ptr %2, i64 1
  %17 = load i8, ptr %2, align 1, !tbaa !14
  %18 = zext i8 %17 to i64
  %19 = call i32 @ossl_quic_hkdf_extract(ptr noundef %0, ptr noundef %1, ptr noundef nonnull %13, ptr noundef nonnull @quic_v1_initial_salt, i64 noundef 20, ptr noundef nonnull %16, i64 noundef %18, ptr noundef nonnull %7, i64 noundef 32)
  %.not57 = icmp eq i32 %19, 0
  br i1 %.not57, label %33, label %20

20:                                               ; preds = %15
  %or.cond69.v = select i1 %.not, ptr %5, ptr %4
  %or.cond69 = icmp eq ptr %or.cond69.v, null
  br i1 %or.cond69, label %23, label %21

21:                                               ; preds = %20
  %22 = call i32 @tls13_hkdf_expand_ex(ptr noundef %0, ptr noundef %1, ptr noundef nonnull %13, ptr noundef nonnull %7, ptr noundef nonnull @quic_client_in_label, i64 noundef 9, ptr noundef null, i64 noundef 0, ptr noundef nonnull %8, i64 noundef 32, i32 noundef 1) #5
  %.not58 = icmp eq i32 %22, 0
  br i1 %.not58, label %33, label %23

23:                                               ; preds = %20, %21
  %or.cond66.v = select i1 %.not, ptr %4, ptr %5
  %or.cond66.not = icmp eq ptr %or.cond66.v, null
  br i1 %or.cond66.not, label %26, label %24

24:                                               ; preds = %23
  %25 = call i32 @tls13_hkdf_expand_ex(ptr noundef %0, ptr noundef %1, ptr noundef nonnull %13, ptr noundef nonnull %7, ptr noundef nonnull @quic_server_in_label, i64 noundef 9, ptr noundef null, i64 noundef 0, ptr noundef nonnull %9, i64 noundef 32, i32 noundef 1) #5
  %.not59 = icmp eq i32 %25, 0
  br i1 %.not59, label %33, label %26

26:                                               ; preds = %23, %24
  br i1 %10, label %.thread, label %27

27:                                               ; preds = %26
  %28 = call i32 @ossl_qrx_provide_secret(ptr noundef nonnull %4, i32 noundef 0, i32 noundef 1, ptr noundef nonnull %13, ptr noundef nonnull %., i64 noundef 32) #5
  %.not60 = icmp eq i32 %28, 0
  br i1 %.not60, label %33, label %29

29:                                               ; preds = %27
  br i1 %11, label %.critedge, label %30

30:                                               ; preds = %29
  %31 = call i32 @EVP_MD_up_ref(ptr noundef nonnull %13) #5
  %.not61 = icmp eq i32 %31, 0
  br i1 %.not61, label %33, label %.thread65

.thread:                                          ; preds = %26
  br i1 %11, label %.critedge, label %.thread65

.thread65:                                        ; preds = %30, %.thread
  %32 = call i32 @ossl_qtx_provide_secret(ptr noundef nonnull %5, i32 noundef 0, i32 noundef 1, ptr noundef nonnull %13, ptr noundef nonnull %.63, i64 noundef 32) #5
  %.not62 = icmp eq i32 %32, 0
  br i1 %.not62, label %33, label %.critedge

33:                                               ; preds = %30, %.thread65, %27, %24, %21, %15
  %.0 = phi ptr [ %13, %.thread65 ], [ %13, %27 ], [ %13, %24 ], [ %13, %21 ], [ %13, %15 ], [ null, %30 ]
  call void @EVP_MD_free(ptr noundef %.0) #5
  br label %.critedge

.critedge:                                        ; preds = %29, %.thread, %.thread65, %12, %6, %33
  %.053 = phi i32 [ 0, %33 ], [ 1, %6 ], [ 0, %12 ], [ 1, %.thread65 ], [ 1, %.thread ], [ 1, %29 ]
  call void @llvm.lifetime.end.p0(i64 32, ptr nonnull %9) #5
  call void @llvm.lifetime.end.p0(i64 32, ptr nonnull %8) #5
  call void @llvm.lifetime.end.p0(i64 32, ptr nonnull %7) #5
  ret i32 %.053
}